(dp0
S'data'
p1
S'10000174058809263569,0\n10000182526920855428,0\n10000554139829213984,0\n10001094637809798845,0\n10001377041558670745,1\n10001521204153353724,0\n10001911056707023378,0\n10001982898844213216,0\n10002000217531288531,0\n10002107385290585663,1\n10002121728305927027,0\n10002246330438763746,0\n10002274319697022546,0\n10002614093820007721,0\n10003085473872233973,0\n10003460544097147762,0\n10003655272218038955,0\n10003886426122210904,0\n10003962554013591855,1\n10004028101361908315,0\n10004147501365763118,0\n10004218627354023598,0\n10004594809490024984,0\n10004595231242657912,0\n10004844867110879461,0\n10004882149038870218,0\n10004964724620895563,1\n10005270909407257114,0\n10005321853961183294,0\n10005377878485192027,0\n10005393772068777563,0\n10005590340325299418,0\n10005699539312355785,0\n1000577300525735443,0\n10005820254128956932,0\n10006038006847070986,0\n10006122573184581504,0\n10006196574590505608,0\n10006203870784069854,0\n10006746970844654259,0\n10006920489539696964,0\n10007327278593293361,0'
p2
s.